; Function Attrs: mustprogress uwtable
define void @_ZN3zmq13socket_base_t12stop_monitorEb(ptr noundef nonnull align 8 captures(none) dereferenceable(1825) %0, i1 noundef zeroext %1) local_unnamed_addr #0 align 2 personality ptr @__gxx_personality_v0 {
  %3 = alloca [1 x i64], align 8
  %4 = alloca %"struct.zmq::endpoint_uri_pair_t", align 8
  %5 = getelementptr inbounds nuw i8, ptr %0, i64 1712
  %6 = load ptr, ptr %5, align 8, !tbaa !117
  %.not = icmp eq ptr %6, null
  br i1 %.not, label %32, label %7

7:                                                ; preds = %2
  %8 = getelementptr inbounds nuw i8, ptr %0, i64 1720
  %9 = load i64, ptr %8, align 8, !tbaa !118
  %10 = and i64 %9, 1024
  %.not3 = icmp ne i64 %10, 0
  %brmerge.not = and i1 %1, %.not3
  br i1 %brmerge.not, label %11, label %29

11:                                               ; preds = %7
  call void @llvm.lifetime.start.p0(i64 8, ptr nonnull %3) #36
  store i64 0, ptr %3, align 8
  call void @llvm.lifetime.start.p0(i64 72, ptr nonnull %4) #36
  %12 = getelementptr inbounds nuw i8, ptr %4, i64 16
  store ptr %12, ptr %4, align 8, !tbaa !8
  %13 = getelementptr inbounds nuw i8, ptr %4, i64 8
  store i64 0, ptr %13, align 8, !tbaa !16
  store i8 0, ptr %12, align 8, !tbaa !15
  %14 = getelementptr inbounds nuw i8, ptr %4, i64 32
  %15 = getelementptr inbounds nuw i8, ptr %4, i64 48
  store ptr %15, ptr %14, align 8, !tbaa !8
  %16 = getelementptr inbounds nuw i8, ptr %4, i64 40
  store i64 0, ptr %16, align 8, !tbaa !16
  store i8 0, ptr %15, align 8, !tbaa !15
  %17 = getelementptr inbounds nuw i8, ptr %4, i64 64
  store i32 0, ptr %17, align 8, !tbaa !119
  invoke void @_ZNK3zmq13socket_base_t13monitor_eventEmPKmmRKNS_19endpoint_uri_pair_tE(ptr noundef nonnull align 8 dereferenceable(1825) %0, i64 noundef 1024, ptr noundef nonnull %3, i64 noundef 1, ptr noundef nonnull align 8 dereferenceable(68) %4)
          to label %18 unwind label %27

18:                                               ; preds = %11
  %19 = load ptr, ptr %14, align 8, !tbaa !13
  %20 = icmp eq ptr %19, %15
  br i1 %20, label %_ZNKSt7__cxx1112basic_stringIcSt11char_traitsIcESaIcEE11_M_is_localEv.exit.thread.i.i.i, label %_ZNKSt7__cxx1112basic_stringIcSt11char_traitsIcESaIcEE11_M_is_localEv.exit.i.i.i

_ZNKSt7__cxx1112basic_stringIcSt11char_traitsIcESaIcEE11_M_is_localEv.exit.thread.i.i.i: ; preds = %18
  %21 = load i64, ptr %16, align 8, !tbaa !16
  %22 = icmp ult i64 %21, 16
  call void @llvm.assume(i1 %22)
  br label %_ZNSt7__cxx1112basic_stringIcSt11char_traitsIcESaIcEED2Ev.exit.i

_ZNKSt7__cxx1112basic_stringIcSt11char_traitsIcESaIcEE11_M_is_localEv.exit.i.i.i: ; preds = %18
  call void @_ZdlPv(ptr noundef %19) #38
  br label %_ZNSt7__cxx1112basic_stringIcSt11char_traitsIcESaIcEED2Ev.exit.i

_ZNSt7__cxx1112basic_stringIcSt11char_traitsIcESaIcEED2Ev.exit.i: ; preds = %_ZNKSt7__cxx1112basic_stringIcSt11char_traitsIcESaIcEE11_M_is_localEv.exit.i.i.i, %_ZNKSt7__cxx1112basic_stringIcSt11char_traitsIcESaIcEE11_M_is_localEv.exit.thread.i.i.i
  %23 = load ptr, ptr %4, align 8, !tbaa !13
  %24 = icmp eq ptr %23, %12
  br i1 %24, label %_ZNKSt7__cxx1112basic_stringIcSt11char_traitsIcESaIcEE11_M_is_localEv.exit.thread.i.i2.i, label %_ZNKSt7__cxx1112basic_stringIcSt11char_traitsIcESaIcEE11_M_is_localEv.exit.i.i1.i

_ZNKSt7__cxx1112basic_stringIcSt11char_traitsIcESaIcEE11_M_is_localEv.exit.thread.i.i2.i: ; preds = %_ZNSt7__cxx1112basic_stringIcSt11char_traitsIcESaIcEED2Ev.exit.i
  %25 = load i64, ptr %13, align 8, !tbaa !16
  %26 = icmp ult i64 %25, 16
  call void @llvm.assume(i1 %26)
  br label %_ZN3zmq19endpoint_uri_pair_tD2Ev.exit

_ZNKSt7__cxx1112basic_stringIcSt11char_traitsIcESaIcEE11_M_is_localEv.exit.i.i1.i: ; preds = %_ZNSt7__cxx1112basic_stringIcSt11char_traitsIcESaIcEED2Ev.exit.i
  call void @_ZdlPv(ptr noundef %23) #38
  br label %_ZN3zmq19endpoint_uri_pair_tD2Ev.exit

_ZN3zmq19endpoint_uri_pair_tD2Ev.exit:            ; preds = %_ZNKSt7__cxx1112basic_stringIcSt11char_traitsIcESaIcEE11_M_is_localEv.exit.thread.i.i2.i, %_ZNKSt7__cxx1112basic_stringIcSt11char_traitsIcESaIcEE11_M_is_localEv.exit.i.i1.i
  call void @llvm.lifetime.end.p0(i64 72, ptr nonnull %4) #36
  call void @llvm.lifetime.end.p0(i64 8, ptr nonnull %3) #36
  %.pre = load ptr, ptr %5, align 8, !tbaa !117
  br label %29

27:                                               ; preds = %11
  %28 = landingpad { ptr, i32 }
          cleanup
  call void @_ZN3zmq19endpoint_uri_pair_tD2Ev(ptr noundef nonnull align 8 dereferenceable(68) %4) #36
  call void @llvm.lifetime.end.p0(i64 72, ptr nonnull %4) #36
  call void @llvm.lifetime.end.p0(i64 8, ptr nonnull %3) #36
  resume { ptr, i32 } %28

29:                                               ; preds = %7, %_ZN3zmq19endpoint_uri_pair_tD2Ev.exit
  %30 = phi ptr [ %6, %7 ], [ %.pre, %_ZN3zmq19endpoint_uri_pair_tD2Ev.exit ]
  %31 = call i32 @zmq_close(ptr noundef %30)
  call void @llvm.memset.p0.i64(ptr noundef nonnull align 8 dereferenceable(16) %5, i8 0, i64 16, i1 false)
  br label %32

32:                                               ; preds = %29, %2
  ret void
}